target datalayout = "e-m:e-p270:32:32-p271:32:32-p272:64:64-i64:64-i128:128-f80:128-n8:16:32:64-S128"
target triple = "x86_64-pc-linux-gnu"

%"class.pybind11::handle" = type { ptr }

@_ZTIN8pybind1117error_already_setE = linkonce_odr hidden constant { ptr, ptr, ptr } { ptr getelementptr inbounds (ptr, ptr @_ZTVN10__cxxabiv120__si_class_type_infoE, i64 2), ptr @_ZTSN8pybind1117error_already_setE, ptr @_ZTISt9exception }, comdat, align 8
@PyExc_RuntimeError = external global ptr, align 8
@.str.108 = private unnamed_addr constant [11 x i8] c"1st error.\00", align 1
@.str.109 = private unnamed_addr constant [11 x i8] c"2nd error.\00", align 1

; Function Attrs: mustprogress nounwind uwtable
define linkonce_odr hidden noundef ptr @_ZNK8pybind116handle3ptrEv(ptr noundef nonnull align 8 dereferenceable(8) %0) #0 comdat align 2 {
  %2 = alloca ptr, align 8
  store ptr %0, ptr %2, align 8
  %3 = load ptr, ptr %2, align 8
  %4 = getelementptr inbounds %"class.pybind11::handle", ptr %3, i32 0, i32 0
  %5 = load ptr, ptr %4, align 8
  ret ptr %5
}

; Function Attrs: mustprogress uwtable
define linkonce_odr hidden void @_ZN8pybind119set_errorERKNS_6handleEPKc(ptr noundef nonnull align 8 dereferenceable(8) %0, ptr noundef %1) #1 comdat {
  %3 = alloca ptr, align 8
  %4 = alloca ptr, align 8
  store ptr %0, ptr %3, align 8
  store ptr %1, ptr %4, align 8
  %5 = load ptr, ptr %3, align 8
  %6 = call noundef ptr @_ZNK8pybind116handle3ptrEv(ptr noundef nonnull align 8 dereferenceable(8) %5)
  %7 = load ptr, ptr %4, align 8
  call void @PyErr_SetString(ptr noundef %6, ptr noundef %7)
  ret void
}

; Function Attrs: mustprogress nounwind uwtable
define linkonce_odr hidden void @_ZN8pybind116handleC2IP7_objectTnNSt9enable_ifIXsr6detail25is_pyobj_ptr_or_nullptr_tIT_EE5valueEiE4typeELi0EEES5_(ptr noundef nonnull align 8 dereferenceable(8) %0, ptr noundef %1) unnamed_addr #0 comdat align 2 {
  %3 = alloca ptr, align 8
  %4 = alloca ptr, align 8
  store ptr %0, ptr %3, align 8
  store ptr %1, ptr %4, align 8
  %5 = load ptr, ptr %3, align 8
  %6 = getelementptr inbounds %"class.pybind11::handle", ptr %5, i32 0, i32 0
  %7 = load ptr, ptr %4, align 8
  store ptr %7, ptr %6, align 8
  ret void
}

; Function Attrs: mustprogress uwtable
define internal void @_ZN12_GLOBAL__N_129interleaved_error_already_setEv() #1 personality ptr @__gxx_personality_v0 {
  %1 = alloca %"class.pybind11::handle", align 8
  %2 = alloca ptr, align 8
  %3 = alloca i32, align 4
  %4 = alloca ptr, align 8
  %5 = alloca %"class.pybind11::handle", align 8
  %6 = load ptr, ptr @PyExc_RuntimeError, align 8
  call void @_ZN8pybind116handleC2IP7_objectTnNSt9enable_ifIXsr6detail25is_pyobj_ptr_or_nullptr_tIT_EE5valueEiE4typeELi0EEES5_(ptr noundef nonnull align 8 dereferenceable(8) %1, ptr noundef %6)
  call void @_ZN8pybind119set_errorERKNS_6handleEPKc(ptr noundef nonnull align 8 dereferenceable(8) %1, ptr noundef @.str.108)
  %7 = call ptr @__cxa_allocate_exception(i64 24) #15
  invoke void @_ZN8pybind1117error_already_setC2Ev(ptr noundef nonnull align 8 dereferenceable(24) %7)
          to label %8 unwind label %9

8:                                                ; preds = %0
  invoke void @__cxa_throw(ptr %7, ptr @_ZTIN8pybind1117error_already_setE, ptr @_ZN8pybind1117error_already_setD2Ev) #18
          to label %51 unwind label %13

9:                                                ; preds = %0
  %10 = landingpad { ptr, i32 }
          cleanup
          catch ptr @_ZTIN8pybind1117error_already_setE
  %11 = extractvalue { ptr, i32 } %10, 0
  store ptr %11, ptr %2, align 8
  %12 = extractvalue { ptr, i32 } %10, 1
  store i32 %12, ptr %3, align 4
  call void @__cxa_free_exception(ptr %7) #15
  br label %17

13:                                               ; preds = %8
  %14 = landingpad { ptr, i32 }
          catch ptr @_ZTIN8pybind1117error_already_setE
  %15 = extractvalue { ptr, i32 } %14, 0
  store ptr %15, ptr %2, align 8
  %16 = extractvalue { ptr, i32 } %14, 1
  store i32 %16, ptr %3, align 4
  br label %17

17:                                               ; preds = %13, %9
  %18 = load i32, ptr %3, align 4
  %19 = call i32 @llvm.eh.typeid.for(ptr @_ZTIN8pybind1117error_already_setE) #15
  %20 = icmp eq i32 %18, %19
  br i1 %20, label %21, label %43

21:                                               ; preds = %17
  %22 = load ptr, ptr %2, align 8
  %23 = call ptr @__cxa_begin_catch(ptr %22) #15
  store ptr %23, ptr %4, align 8
  %24 = load ptr, ptr @PyExc_RuntimeError, align 8
  invoke void @_ZN8pybind116handleC2IP7_objectTnNSt9enable_ifIXsr6detail25is_pyobj_ptr_or_nullptr_tIT_EE5valueEiE4typeELi0EEES5_(ptr noundef nonnull align 8 dereferenceable(8) %5, ptr noundef %24)
          to label %25 unwind label %33

25:                                               ; preds = %21
  invoke void @_ZN8pybind119set_errorERKNS_6handleEPKc(ptr noundef nonnull align 8 dereferenceable(8) %5, ptr noundef @.str.109)
          to label %26 unwind label %33

26:                                               ; preds = %25
  call void @__cxa_end_catch()
  br label %27

27:                                               ; preds = %26
  %28 = call ptr @PyErr_Occurred()
  %29 = icmp ne ptr %28, null
  br i1 %29, label %30, label %42

30:                                               ; preds = %27
  %31 = call ptr @__cxa_allocate_exception(i64 24) #15
  invoke void @_ZN8pybind1117error_already_setC2Ev(ptr noundef nonnull align 8 dereferenceable(24) %31)
          to label %32 unwind label %38

32:                                               ; preds = %30
  call void @__cxa_throw(ptr %31, ptr @_ZTIN8pybind1117error_already_setE, ptr @_ZN8pybind1117error_already_setD2Ev) #18
  unreachable

33:                                               ; preds = %25, %21
  %34 = landingpad { ptr, i32 }
          cleanup
  %35 = extractvalue { ptr, i32 } %34, 0
  store ptr %35, ptr %2, align 8
  %36 = extractvalue { ptr, i32 } %34, 1
  store i32 %36, ptr %3, align 4
  invoke void @__cxa_end_catch()
          to label %37 unwind label %48

37:                                               ; preds = %33
  br label %43

38:                                               ; preds = %30
  %39 = landingpad { ptr, i32 }
          cleanup
  %40 = extractvalue { ptr, i32 } %39, 0
  store ptr %40, ptr %2, align 8
  %41 = extractvalue { ptr, i32 } %39, 1
  store i32 %41, ptr %3, align 4
  call void @__cxa_free_exception(ptr %31) #15
  br label %43

42:                                               ; preds = %27
  ret void

43:                                               ; preds = %38, %37, %17
  %44 = load ptr, ptr %2, align 8
  %45 = load i32, ptr %3, align 4
  %46 = insertvalue { ptr, i32 } poison, ptr %44, 0
  %47 = insertvalue { ptr, i32 } %46, i32 %45, 1
  resume { ptr, i32 } %47

48:                                               ; preds = %33
  %49 = landingpad { ptr, i32 }
          catch ptr null
  %50 = extractvalue { ptr, i32 } %49, 0
  call void @__clang_call_terminate(ptr %50) #17
  unreachable

51:                                               ; preds = %8
  unreachable
}