; Function Attrs: mustprogress uwtable
define internal void @_ZN12_GLOBAL__N_129interleaved_error_already_setEv() #1 personality ptr @__gxx_personality_v0 {
  %1 = load ptr, ptr @PyExc_RuntimeError, align 8
  tail call void @PyErr_SetString(ptr noundef %1, ptr noundef nonnull @.str.108)
  %2 = tail call ptr @__cxa_allocate_exception(i64 24) #22
  invoke void @_ZN8pybind1117error_already_setC2Ev(ptr noundef nonnull align 8 dereferenceable(24) %2)
          to label %3 unwind label %4

3:                                                ; preds = %0
  invoke void @__cxa_throw(ptr nonnull %2, ptr nonnull @_ZTIN8pybind1117error_already_setE, ptr nonnull @_ZN8pybind1117error_already_setD2Ev) #25
          to label %27 unwind label %6

4:                                                ; preds = %0
  %5 = landingpad { ptr, i32 }
          cleanup
          catch ptr @_ZTIN8pybind1117error_already_setE
  tail call void @__cxa_free_exception(ptr %2) #22
  br label %8

6:                                                ; preds = %3
  %7 = landingpad { ptr, i32 }
          catch ptr @_ZTIN8pybind1117error_already_setE
  br label %8

8:                                                ; preds = %6, %4
  %.pn = phi { ptr, i32 } [ %7, %6 ], [ %5, %4 ]
  %.03 = extractvalue { ptr, i32 } %.pn, 1
  %9 = tail call i32 @llvm.eh.typeid.for(ptr nonnull @_ZTIN8pybind1117error_already_setE) #22
  %10 = icmp eq i32 %.03, %9
  br i1 %10, label %11, label %23

11:                                               ; preds = %8
  %.0 = extractvalue { ptr, i32 } %.pn, 0
  %12 = tail call ptr @__cxa_begin_catch(ptr %.0) #22
  %13 = load ptr, ptr @PyExc_RuntimeError, align 8
  invoke void @PyErr_SetString(ptr noundef %13, ptr noundef nonnull @.str.109)
          to label %_ZN8pybind119set_errorERKNS_6handleEPKc.exit unwind label %18

_ZN8pybind119set_errorERKNS_6handleEPKc.exit:     ; preds = %11
  tail call void @__cxa_end_catch()
  %14 = tail call ptr @PyErr_Occurred()
  %.not = icmp eq ptr %14, null
  br i1 %.not, label %22, label %15

15:                                               ; preds = %_ZN8pybind119set_errorERKNS_6handleEPKc.exit
  %16 = tail call ptr @__cxa_allocate_exception(i64 24) #22
  invoke void @_ZN8pybind1117error_already_setC2Ev(ptr noundef nonnull align 8 dereferenceable(24) %16)
          to label %17 unwind label %20

17:                                               ; preds = %15
  tail call void @__cxa_throw(ptr nonnull %16, ptr nonnull @_ZTIN8pybind1117error_already_setE, ptr nonnull @_ZN8pybind1117error_already_setD2Ev) #25
  unreachable

18:                                               ; preds = %11
  %19 = landingpad { ptr, i32 }
          cleanup
  invoke void @__cxa_end_catch()
          to label %23 unwind label %24

20:                                               ; preds = %15
  %21 = landingpad { ptr, i32 }
          cleanup
  tail call void @__cxa_free_exception(ptr %16) #22
  br label %23

22:                                               ; preds = %_ZN8pybind119set_errorERKNS_6handleEPKc.exit
  ret void

23:                                               ; preds = %18, %20, %8
  %.merged = phi { ptr, i32 } [ %21, %20 ], [ %19, %18 ], [ %.pn, %8 ]
  resume { ptr, i32 } %.merged

24:                                               ; preds = %18
  %25 = landingpad { ptr, i32 }
          catch ptr null
  %26 = extractvalue { ptr, i32 } %25, 0
  tail call void @__clang_call_terminate(ptr %26) #23
  unreachable

27:                                               ; preds = %3
  unreachable
}